; Function Attrs: nofree norecurse nosync nounwind memory(none) uwtable
define dso_local i64 @hash_select_dirsize(i64 noundef %0) local_unnamed_addr #9 {
  %spec.store.select.i.i = tail call i64 @llvm.smin.i64(i64 %0, i64 4611686018427387903)
  %2 = add i64 %spec.store.select.i.i, -1
  %3 = tail call range(i64 0, 65) i64 @llvm.ctlz.i64(i64 range(i64 1, -1) %2, i1 false)
  %4 = sub nsw i64 0, %3
  %5 = and i64 %4, 63
  %notmask = shl nsw i64 -1, %5
  %6 = xor i64 %notmask, -1
  %7 = lshr i64 %6, 8
  %8 = tail call range(i64 0, 65) i64 @llvm.ctlz.i64(i64 range(i64 1, -1) %7, i1 false)
  %9 = sub nsw i64 0, %8
  %10 = and i64 %9, 63
  %11 = shl nuw i64 1, %10
  br label %12

12:                                               ; preds = %12, %1
  %.0 = phi i64 [ 256, %1 ], [ %14, %12 ]
  %13 = icmp slt i64 %.0, %11
  %14 = shl i64 %.0, 1
  br i1 %13, label %12, label %15, !llvm.loop !17

15:                                               ; preds = %12
  ret i64 %.0
}